target datalayout = "e-m:e-p270:32:32-p271:32:32-p272:64:64-i64:64-i128:128-f80:128-n8:16:32:64-S128"
target triple = "x86_64-pc-linux-gnu"

%struct.__va_list_tag = type { i32, i32, ptr, ptr }

@verbosity = internal global i32 0, align 4
@stdout = external global ptr, align 8

; Function Attrs: inlinehint nounwind uwtable
define available_externally i32 @vprintf(ptr noalias noundef %0, ptr noundef %1) #5 {
  %3 = alloca ptr, align 8
  %4 = alloca ptr, align 8
  store ptr %0, ptr %3, align 8, !tbaa !29
  store ptr %1, ptr %4, align 8, !tbaa !120
  %5 = load ptr, ptr @stdout, align 8, !tbaa !16
  %6 = load ptr, ptr %3, align 8, !tbaa !29
  %7 = load ptr, ptr %4, align 8, !tbaa !120
  %8 = call i32 @vfprintf(ptr noundef %5, ptr noundef %6, ptr noundef %7) #11
  ret i32 %8
}

; Function Attrs: nounwind uwtable
define internal void @imap_info(ptr noundef %0, ...) #0 {
  %2 = alloca ptr, align 8
  %3 = alloca [1 x %struct.__va_list_tag], align 16
  store ptr %0, ptr %2, align 8, !tbaa !29
  call void @llvm.lifetime.start.p0(i64 24, ptr %3) #11
  %4 = load i32, ptr @verbosity, align 4, !tbaa !4
  %5 = icmp sle i32 0, %4
  br i1 %5, label %6, label %14

6:                                                ; preds = %1
  %7 = getelementptr inbounds [1 x %struct.__va_list_tag], ptr %3, i64 0, i64 0
  call void @llvm.va_start.p0(ptr %7)
  %8 = load ptr, ptr %2, align 8, !tbaa !29
  %9 = getelementptr inbounds [1 x %struct.__va_list_tag], ptr %3, i64 0, i64 0
  %10 = call i32 @vprintf(ptr noundef %8, ptr noundef %9) #11
  %11 = getelementptr inbounds [1 x %struct.__va_list_tag], ptr %3, i64 0, i64 0
  call void @llvm.va_end.p0(ptr %11)
  %12 = load ptr, ptr @stdout, align 8, !tbaa !16
  %13 = call i32 @fflush(ptr noundef %12)
  br label %14

14:                                               ; preds = %6, %1
  call void @llvm.lifetime.end.p0(i64 24, ptr %3) #11
  ret void
}